; Function Attrs: mustprogress nounwind uwtable
define void @_ZN7openvdb5v11_02io10MappedFile13clearNotifierEv(ptr nocapture noundef nonnull readonly align 8 dereferenceable(8) %this) local_unnamed_addr #8 align 2 personality ptr @__gxx_personality_v0 {
entry:
  %0 = load ptr, ptr %this, align 8
  %_M_manager.i = getelementptr inbounds i8, ptr %0, i64 96
  %1 = load ptr, ptr %_M_manager.i, align 8
  %tobool.not.i = icmp eq ptr %1, null
  br i1 %tobool.not.i, label %_ZNSt8functionIFvNSt7__cxx1112basic_stringIcSt11char_traitsIcESaIcEEEEEaSEDn.exit, label %if.then.i

if.then.i:                                        ; preds = %entry
  %mNotifier = getelementptr inbounds i8, ptr %0, i64 80
  %call.i = invoke noundef zeroext i1 %1(ptr noundef nonnull align 8 dereferenceable(16) %mNotifier, ptr noundef nonnull align 8 dereferenceable(16) %mNotifier, i32 noundef 3)
          to label %invoke.cont.i unwind label %terminate.lpad.i

invoke.cont.i:                                    ; preds = %if.then.i
  tail call void @llvm.memset.p0.i64(ptr noundef nonnull align 8 dereferenceable(16) %_M_manager.i, i8 0, i64 16, i1 false)
  br label %_ZNSt8functionIFvNSt7__cxx1112basic_stringIcSt11char_traitsIcESaIcEEEEEaSEDn.exit

terminate.lpad.i:                                 ; preds = %if.then.i
  %2 = landingpad { ptr, i32 }
          catch ptr null
  %3 = extractvalue { ptr, i32 } %2, 0
  tail call void @__clang_call_terminate(ptr %3) #37
  unreachable

_ZNSt8functionIFvNSt7__cxx1112basic_stringIcSt11char_traitsIcESaIcEEEEEaSEDn.exit: ; preds = %entry, %invoke.cont.i
  ret void
}